target datalayout = "e-m:e-p270:32:32-p271:32:32-p272:64:64-i64:64-i128:128-f80:128-n8:16:32:64-S128"
target triple = "x86_64-pc-linux-gnu"

@.str.49 = private unnamed_addr constant [25 x i8] c"Invalid max_alloc \22%s\22.\0A\00", align 1

; Function Attrs: nounwind uwtable
define i32 @opt_max_alloc(ptr noundef %0, ptr noundef %1, ptr noundef %2) #0 {
  %4 = alloca i32, align 4
  %5 = alloca ptr, align 8
  %6 = alloca ptr, align 8
  %7 = alloca ptr, align 8
  %8 = alloca ptr, align 8
  %9 = alloca i64, align 8
  %10 = alloca i32, align 4
  store ptr %0, ptr %5, align 8, !tbaa !4
  store ptr %1, ptr %6, align 8, !tbaa !8
  store ptr %2, ptr %7, align 8, !tbaa !8
  call void @llvm.lifetime.start.p0(i64 8, ptr %8) #11
  call void @llvm.lifetime.start.p0(i64 8, ptr %9) #11
  %11 = load ptr, ptr %7, align 8, !tbaa !8
  %12 = call i64 @strtol(ptr noundef %11, ptr noundef %8, i32 noundef 10) #11
  store i64 %12, ptr %9, align 8, !tbaa !140
  %13 = load ptr, ptr %8, align 8, !tbaa !8
  %14 = load i8, ptr %13, align 1, !tbaa !17
  %15 = icmp ne i8 %14, 0
  br i1 %15, label %16, label %18

16:                                               ; preds = %3
  %17 = load ptr, ptr %7, align 8, !tbaa !8
  call void (ptr, i32, ptr, ...) @av_log(ptr noundef null, i32 noundef 8, ptr noundef @.str.49, ptr noundef %17)
  store i32 -22, ptr %4, align 4
  store i32 1, ptr %10, align 4
  br label %20

18:                                               ; preds = %3
  %19 = load i64, ptr %9, align 8, !tbaa !140
  call void @av_max_alloc(i64 noundef %19)
  store i32 0, ptr %4, align 4
  store i32 1, ptr %10, align 4
  br label %20

20:                                               ; preds = %18, %16
  call void @llvm.lifetime.end.p0(i64 8, ptr %9) #11
  call void @llvm.lifetime.end.p0(i64 8, ptr %8) #11
  %21 = load i32, ptr %4, align 4
  ret i32 %21
}