; Function Attrs: nounwind uwtable
define range(i32 -22, 1) i32 @opt_max_alloc(ptr noundef readnone captures(none) %0, ptr noundef readnone captures(none) %1, ptr noundef %2) local_unnamed_addr #2 {
  %4 = alloca ptr, align 8
  call void @llvm.lifetime.start.p0(i64 8, ptr nonnull %4) #17
  %5 = call i64 @strtol(ptr noundef %2, ptr noundef nonnull %4, i32 noundef 10) #17
  %6 = load ptr, ptr %4, align 8, !tbaa !13
  %7 = load i8, ptr %6, align 1, !tbaa !8
  %.not = icmp eq i8 %7, 0
  br i1 %.not, label %9, label %8

8:                                                ; preds = %3
  tail call void (ptr, i32, ptr, ...) @av_log(ptr noundef null, i32 noundef 8, ptr noundef nonnull @.str.49, ptr noundef %2) #17
  br label %10

9:                                                ; preds = %3
  tail call void @av_max_alloc(i64 noundef %5) #17
  br label %10

10:                                               ; preds = %9, %8
  %.0 = phi i32 [ -22, %8 ], [ 0, %9 ]
  call void @llvm.lifetime.end.p0(i64 8, ptr nonnull %4) #17
  ret i32 %.0
}